target datalayout = "e-m:e-p270:32:32-p271:32:32-p272:64:64-i64:64-i128:128-f80:128-n8:16:32:64-S128"
target triple = "x86_64-unknown-linux-gnu"

%class.symbol = type { ptr }
%class.func_decl = type { %class.decl, i32, ptr, [0 x ptr] }
%class.decl = type { %class.ast, %class.symbol, ptr }
%class.ast = type { i32, i24, i32, i32 }
%class.arith_util = type { ptr, ptr }
%class.decl_info = type <{ i32, i32, %class.vector.309, i8, [7 x i8] }>
%class.vector.309 = type { ptr }

; Function Attrs: mustprogress nounwind uwtable
define linkonce_odr hidden noundef i32 @_ZNK9decl_info13get_decl_kindEv(ptr noundef nonnull align 8 dereferenceable(17) %this) #5 comdat align 2 {
entry:
  %this.addr = alloca ptr, align 8
  store ptr %this, ptr %this.addr, align 8
  %this1 = load ptr, ptr %this.addr, align 8
  %m_kind = getelementptr inbounds %class.decl_info, ptr %this1, i32 0, i32 1
  %0 = load i32, ptr %m_kind, align 4
  ret i32 %0
}

; Function Attrs: mustprogress nounwind uwtable
define linkonce_odr hidden noundef i32 @_ZNK9decl_info13get_family_idEv(ptr noundef nonnull align 8 dereferenceable(17) %this) #5 comdat align 2 {
entry:
  %this.addr = alloca ptr, align 8
  store ptr %this, ptr %this.addr, align 8
  %this1 = load ptr, ptr %this.addr, align 8
  %m_family_id = getelementptr inbounds %class.decl_info, ptr %this1, i32 0, i32 0
  %0 = load i32, ptr %m_family_id, align 8
  ret i32 %0
}

; Function Attrs: mustprogress uwtable
define linkonce_odr hidden noundef i32 @_ZNK4decl13get_decl_kindEv(ptr noundef nonnull align 8 dereferenceable(32) %this) #4 comdat align 2 {
entry:
  %this.addr = alloca ptr, align 8
  store ptr %this, ptr %this.addr, align 8
  %this1 = load ptr, ptr %this.addr, align 8
  %m_info = getelementptr inbounds %class.decl, ptr %this1, i32 0, i32 2
  %0 = load ptr, ptr %m_info, align 8
  %cmp = icmp eq ptr %0, null
  br i1 %cmp, label %cond.true, label %cond.false

cond.true:                                        ; preds = %entry
  br label %cond.end

cond.false:                                       ; preds = %entry
  %m_info2 = getelementptr inbounds %class.decl, ptr %this1, i32 0, i32 2
  %1 = load ptr, ptr %m_info2, align 8
  %call = call noundef i32 @_ZNK9decl_info13get_decl_kindEv(ptr noundef nonnull align 8 dereferenceable(17) %1)
  br label %cond.end

cond.end:                                         ; preds = %cond.false, %cond.true
  %cond = phi i32 [ -1, %cond.true ], [ %call, %cond.false ]
  ret i32 %cond
}

; Function Attrs: mustprogress uwtable
define linkonce_odr hidden noundef i32 @_ZNK4decl13get_family_idEv(ptr noundef nonnull align 8 dereferenceable(32) %this) #4 comdat align 2 {
entry:
  %this.addr = alloca ptr, align 8
  store ptr %this, ptr %this.addr, align 8
  %this1 = load ptr, ptr %this.addr, align 8
  %m_info = getelementptr inbounds %class.decl, ptr %this1, i32 0, i32 2
  %0 = load ptr, ptr %m_info, align 8
  %cmp = icmp eq ptr %0, null
  br i1 %cmp, label %cond.true, label %cond.false

cond.true:                                        ; preds = %entry
  br label %cond.end

cond.false:                                       ; preds = %entry
  %m_info2 = getelementptr inbounds %class.decl, ptr %this1, i32 0, i32 2
  %1 = load ptr, ptr %m_info2, align 8
  %call = call noundef i32 @_ZNK9decl_info13get_family_idEv(ptr noundef nonnull align 8 dereferenceable(17) %1)
  br label %cond.end

cond.end:                                         ; preds = %cond.false, %cond.true
  %cond = phi i32 [ -1, %cond.true ], [ %call, %cond.false ]
  ret i32 %cond
}

; Function Attrs: mustprogress uwtable
define linkonce_odr hidden noundef zeroext i1 @_ZNK4sort10is_sort_ofEii(ptr noundef nonnull align 8 dereferenceable(32) %this, i32 noundef %fid, i32 noundef %k) #4 comdat align 2 {
entry:
  %this.addr = alloca ptr, align 8
  %fid.addr = alloca i32, align 4
  %k.addr = alloca i32, align 4
  store ptr %this, ptr %this.addr, align 8
  store i32 %fid, ptr %fid.addr, align 4
  store i32 %k, ptr %k.addr, align 4
  %this1 = load ptr, ptr %this.addr, align 8
  %call = call noundef i32 @_ZNK4decl13get_family_idEv(ptr noundef nonnull align 8 dereferenceable(32) %this1)
  %0 = load i32, ptr %fid.addr, align 4
  %cmp = icmp eq i32 %call, %0
  br i1 %cmp, label %land.rhs, label %land.end

land.rhs:                                         ; preds = %entry
  %call2 = call noundef i32 @_ZNK4decl13get_decl_kindEv(ptr noundef nonnull align 8 dereferenceable(32) %this1)
  %1 = load i32, ptr %k.addr, align 4
  %cmp3 = icmp eq i32 %call2, %1
  br label %land.end

land.end:                                         ; preds = %land.rhs, %entry
  %2 = phi i1 [ false, %entry ], [ %cmp3, %land.rhs ]
  ret i1 %2
}

; Function Attrs: mustprogress uwtable
define linkonce_odr hidden noundef zeroext i1 @_Z10is_sort_ofPK4sortii(ptr noundef %s, i32 noundef %fid, i32 noundef %k) #4 comdat {
entry:
  %s.addr = alloca ptr, align 8
  %fid.addr = alloca i32, align 4
  %k.addr = alloca i32, align 4
  store ptr %s, ptr %s.addr, align 8
  store i32 %fid, ptr %fid.addr, align 4
  store i32 %k, ptr %k.addr, align 4
  %0 = load ptr, ptr %s.addr, align 8
  %1 = load i32, ptr %fid.addr, align 4
  %2 = load i32, ptr %k.addr, align 4
  %call = call noundef zeroext i1 @_ZNK4sort10is_sort_ofEii(ptr noundef nonnull align 8 dereferenceable(32) %0, i32 noundef %1, i32 noundef %2)
  ret i1 %call
}

; Function Attrs: mustprogress uwtable
define linkonce_odr hidden noundef zeroext i1 @_ZNK17arith_recognizers6is_intEPK4sort(ptr noundef nonnull align 1 dereferenceable(1) %this, ptr noundef %s) #4 comdat align 2 {
entry:
  %this.addr = alloca ptr, align 8
  %s.addr = alloca ptr, align 8
  store ptr %this, ptr %this.addr, align 8
  store ptr %s, ptr %s.addr, align 8
  %0 = load ptr, ptr %s.addr, align 8
  %call = call noundef zeroext i1 @_Z10is_sort_ofPK4sortii(ptr noundef %0, i32 noundef 5, i32 noundef 1)
  ret i1 %call
}

; Function Attrs: mustprogress uwtable
define linkonce_odr hidden noundef zeroext i1 @_ZNK17arith_recognizers7is_realEPK4sort(ptr noundef nonnull align 1 dereferenceable(1) %this, ptr noundef %s) #4 comdat align 2 {
entry:
  %this.addr = alloca ptr, align 8
  %s.addr = alloca ptr, align 8
  store ptr %this, ptr %this.addr, align 8
  store ptr %s, ptr %s.addr, align 8
  %0 = load ptr, ptr %s.addr, align 8
  %call = call noundef zeroext i1 @_Z10is_sort_ofPK4sortii(ptr noundef %0, i32 noundef 5, i32 noundef 0)
  ret i1 %call
}

; Function Attrs: mustprogress nounwind uwtable
define linkonce_odr hidden noundef ptr @_ZNK9func_decl10get_domainEj(ptr noundef nonnull align 8 dereferenceable(48) %this, i32 noundef %idx) #5 comdat align 2 {
entry:
  %this.addr = alloca ptr, align 8
  %idx.addr = alloca i32, align 4
  store ptr %this, ptr %this.addr, align 8
  store i32 %idx, ptr %idx.addr, align 4
  %this1 = load ptr, ptr %this.addr, align 8
  %m_domain = getelementptr inbounds %class.func_decl, ptr %this1, i32 0, i32 3
  %0 = load i32, ptr %idx.addr, align 4
  %idxprom = zext i32 %0 to i64
  %arrayidx = getelementptr inbounds [0 x ptr], ptr %m_domain, i64 0, i64 %idxprom
  %1 = load ptr, ptr %arrayidx, align 8
  ret ptr %1
}

; Function Attrs: mustprogress nounwind uwtable
define linkonce_odr hidden noundef i32 @_ZNK9func_decl9get_arityEv(ptr noundef nonnull align 8 dereferenceable(48) %this) #5 comdat align 2 {
entry:
  %this.addr = alloca ptr, align 8
  store ptr %this, ptr %this.addr, align 8
  %this1 = load ptr, ptr %this.addr, align 8
  %m_arity = getelementptr inbounds %class.func_decl, ptr %this1, i32 0, i32 1
  %0 = load i32, ptr %m_arity, align 8
  ret i32 %0
}

; Function Attrs: mustprogress nounwind uwtable
define linkonce_odr hidden noundef ptr @_ZNK9func_decl9get_rangeEv(ptr noundef nonnull align 8 dereferenceable(48) %this) #5 comdat align 2 {
entry:
  %this.addr = alloca ptr, align 8
  store ptr %this, ptr %this.addr, align 8
  %this1 = load ptr, ptr %this.addr, align 8
  %m_range = getelementptr inbounds %class.func_decl, ptr %this1, i32 0, i32 2
  %0 = load ptr, ptr %m_range, align 8
  ret ptr %0
}

; Function Attrs: mustprogress uwtable
define hidden noundef zeroext i1 @_ZNK10func_decls15check_signatureER11ast_managerP9func_decljPKP4sortS5_Rb(ptr noundef nonnull align 8 dereferenceable(8) %this, ptr noundef nonnull align 8 dereferenceable(976) %m, ptr noundef %f, i32 noundef %arity, ptr noundef %domain, ptr noundef %range, ptr noundef nonnull align 1 dereferenceable(1) %coerced) #4 align 2 {
entry:
  %retval = alloca i1, align 1
  %this.addr = alloca ptr, align 8
  %m.addr = alloca ptr, align 8
  %f.addr = alloca ptr, align 8
  %arity.addr = alloca i32, align 4
  %domain.addr = alloca ptr, align 8
  %range.addr = alloca ptr, align 8
  %coerced.addr = alloca ptr, align 8
  %i = alloca i32, align 4
  %s1 = alloca ptr, align 8
  %s2 = alloca ptr, align 8
  %au = alloca %class.arith_util, align 8
  store ptr %this, ptr %this.addr, align 8
  store ptr %m, ptr %m.addr, align 8
  store ptr %f, ptr %f.addr, align 8
  store i32 %arity, ptr %arity.addr, align 4
  store ptr %domain, ptr %domain.addr, align 8
  store ptr %range, ptr %range.addr, align 8
  store ptr %coerced, ptr %coerced.addr, align 8
  %0 = load ptr, ptr %range.addr, align 8
  %cmp = icmp ne ptr %0, null
  br i1 %cmp, label %land.lhs.true, label %if.end

land.lhs.true:                                    ; preds = %entry
  %1 = load ptr, ptr %f.addr, align 8
  %call = call noundef ptr @_ZNK9func_decl9get_rangeEv(ptr noundef nonnull align 8 dereferenceable(48) %1)
  %2 = load ptr, ptr %range.addr, align 8
  %cmp2 = icmp ne ptr %call, %2
  br i1 %cmp2, label %if.then, label %if.end

if.then:                                          ; preds = %land.lhs.true
  store i1 false, ptr %retval, align 1
  br label %return

if.end:                                           ; preds = %land.lhs.true, %entry
  %3 = load ptr, ptr %f.addr, align 8
  %call3 = call noundef i32 @_ZNK9func_decl9get_arityEv(ptr noundef nonnull align 8 dereferenceable(48) %3)
  %4 = load i32, ptr %arity.addr, align 4
  %cmp4 = icmp ne i32 %call3, %4
  br i1 %cmp4, label %if.then5, label %if.end6

if.then5:                                         ; preds = %if.end
  store i1 false, ptr %retval, align 1
  br label %return

if.end6:                                          ; preds = %if.end
  %5 = load ptr, ptr %domain.addr, align 8
  %tobool = icmp ne ptr %5, null
  br i1 %tobool, label %if.end8, label %if.then7

if.then7:                                         ; preds = %if.end6
  store i1 true, ptr %retval, align 1
  br label %return

if.end8:                                          ; preds = %if.end6
  %6 = load ptr, ptr %coerced.addr, align 8
  store i8 0, ptr %6, align 1
  store i32 0, ptr %i, align 4
  br label %for.cond

for.cond:                                         ; preds = %for.inc, %if.end8
  %7 = load i32, ptr %i, align 4
  %8 = load i32, ptr %arity.addr, align 4
  %cmp9 = icmp ult i32 %7, %8
  br i1 %cmp9, label %for.body, label %for.end

for.body:                                         ; preds = %for.cond
  %9 = load ptr, ptr %f.addr, align 8
  %10 = load i32, ptr %i, align 4
  %call10 = call noundef ptr @_ZNK9func_decl10get_domainEj(ptr noundef nonnull align 8 dereferenceable(48) %9, i32 noundef %10)
  store ptr %call10, ptr %s1, align 8
  %11 = load ptr, ptr %domain.addr, align 8
  %12 = load i32, ptr %i, align 4
  %idxprom = zext i32 %12 to i64
  %arrayidx = getelementptr inbounds ptr, ptr %11, i64 %idxprom
  %13 = load ptr, ptr %arrayidx, align 8
  store ptr %13, ptr %s2, align 8
  %14 = load ptr, ptr %s1, align 8
  %15 = load ptr, ptr %s2, align 8
  %cmp11 = icmp eq ptr %14, %15
  br i1 %cmp11, label %if.then12, label %if.end13

if.then12:                                        ; preds = %for.body
  br label %for.inc

if.end13:                                         ; preds = %for.body
  %16 = load ptr, ptr %coerced.addr, align 8
  store i8 1, ptr %16, align 1
  %17 = load ptr, ptr %m.addr, align 8
  call void @_ZN10arith_utilC1ER11ast_manager(ptr noundef nonnull align 8 dereferenceable(16) %au, ptr noundef nonnull align 8 dereferenceable(976) %17)
  %18 = load ptr, ptr %s1, align 8
  %call14 = call noundef zeroext i1 @_ZNK17arith_recognizers7is_realEPK4sort(ptr noundef nonnull align 1 dereferenceable(1) %au, ptr noundef %18)
  br i1 %call14, label %land.lhs.true15, label %if.end18

land.lhs.true15:                                  ; preds = %if.end13
  %19 = load ptr, ptr %s2, align 8
  %call16 = call noundef zeroext i1 @_ZNK17arith_recognizers6is_intEPK4sort(ptr noundef nonnull align 1 dereferenceable(1) %au, ptr noundef %19)
  br i1 %call16, label %if.then17, label %if.end18

if.then17:                                        ; preds = %land.lhs.true15
  br label %for.inc

if.end18:                                         ; preds = %land.lhs.true15, %if.end13
  %20 = load ptr, ptr %s2, align 8
  %call19 = call noundef zeroext i1 @_ZNK17arith_recognizers7is_realEPK4sort(ptr noundef nonnull align 1 dereferenceable(1) %au, ptr noundef %20)
  br i1 %call19, label %land.lhs.true20, label %if.end23

land.lhs.true20:                                  ; preds = %if.end18
  %21 = load ptr, ptr %s1, align 8
  %call21 = call noundef zeroext i1 @_ZNK17arith_recognizers6is_intEPK4sort(ptr noundef nonnull align 1 dereferenceable(1) %au, ptr noundef %21)
  br i1 %call21, label %if.then22, label %if.end23

if.then22:                                        ; preds = %land.lhs.true20
  br label %for.inc

if.end23:                                         ; preds = %land.lhs.true20, %if.end18
  store i1 false, ptr %retval, align 1
  br label %return

for.inc:                                          ; preds = %if.then22, %if.then17, %if.then12
  %22 = load i32, ptr %i, align 4
  %inc = add i32 %22, 1
  store i32 %inc, ptr %i, align 4
  br label %for.cond, !llvm.loop !9

for.end:                                          ; preds = %for.cond
  store i1 true, ptr %retval, align 1
  br label %return

return:                                           ; preds = %for.end, %if.end23, %if.then7, %if.then5, %if.then
  %23 = load i1, ptr %retval, align 1
  ret i1 %23
}