; Function Attrs: mustprogress uwtable
define hidden noundef zeroext i1 @_ZNK10func_decls15check_signatureER11ast_managerP9func_decljPKP4sortS5_Rb(ptr nocapture noundef nonnull readnone align 8 dereferenceable(8) %this, ptr noundef nonnull align 8 dereferenceable(976) %m, ptr nocapture noundef readonly %f, i32 noundef %arity, ptr noundef readonly %domain, ptr noundef readnone %range, ptr nocapture noundef nonnull writeonly align 1 dereferenceable(1) %coerced) local_unnamed_addr #4 align 2 {
entry:
  %au = alloca %class.arith_util, align 8
  %cmp.not = icmp eq ptr %range, null
  br i1 %cmp.not, label %if.end, label %land.lhs.true

land.lhs.true:                                    ; preds = %entry
  %m_range.i = getelementptr inbounds i8, ptr %f, i64 40
  %0 = load ptr, ptr %m_range.i, align 8
  %cmp2.not = icmp eq ptr %0, %range
  br i1 %cmp2.not, label %if.end, label %return

if.end:                                           ; preds = %land.lhs.true, %entry
  %m_arity.i = getelementptr inbounds i8, ptr %f, i64 32
  %1 = load i32, ptr %m_arity.i, align 8
  %cmp4.not = icmp eq i32 %1, %arity
  br i1 %cmp4.not, label %if.end6, label %return

if.end6:                                          ; preds = %if.end
  %tobool.not = icmp eq ptr %domain, null
  br i1 %tobool.not, label %return, label %if.end8

if.end8:                                          ; preds = %if.end6
  store i8 0, ptr %coerced, align 1
  %cmp937.not = icmp eq i32 %arity, 0
  br i1 %cmp937.not, label %return, label %for.body.lr.ph

for.body.lr.ph:                                   ; preds = %if.end8
  %m_domain.i = getelementptr inbounds i8, ptr %f, i64 48
  %wide.trip.count = zext i32 %arity to i64
  br label %for.body

for.body:                                         ; preds = %for.body.lr.ph, %for.inc
  %indvars.iv = phi i64 [ 0, %for.body.lr.ph ], [ %indvars.iv.next, %for.inc ]
  %arrayidx.i = getelementptr inbounds [0 x ptr], ptr %m_domain.i, i64 0, i64 %indvars.iv
  %2 = load ptr, ptr %arrayidx.i, align 8
  %arrayidx = getelementptr inbounds ptr, ptr %domain, i64 %indvars.iv
  %3 = load ptr, ptr %arrayidx, align 8
  %cmp11 = icmp eq ptr %2, %3
  br i1 %cmp11, label %for.inc, label %if.end13

if.end13:                                         ; preds = %for.body
  store i8 1, ptr %coerced, align 1
  call void @_ZN10arith_utilC1ER11ast_manager(ptr noundef nonnull align 8 dereferenceable(16) %au, ptr noundef nonnull align 8 dereferenceable(976) %m)
  %m_info.i.i.i.i = getelementptr inbounds i8, ptr %2, i64 24
  %4 = load ptr, ptr %m_info.i.i.i.i, align 8
  %cmp.i.i.i.i = icmp eq ptr %4, null
  br i1 %cmp.i.i.i.i, label %if.end18, label %_ZNK4decl13get_family_idEv.exit.thread.i.i.i

_ZNK4decl13get_family_idEv.exit.thread.i.i.i:     ; preds = %if.end13
  %5 = load i32, ptr %4, align 8
  %cmp6.i.i.i = icmp eq i32 %5, 5
  br i1 %cmp6.i.i.i, label %_ZNK17arith_recognizers7is_realEPK4sort.exit, label %if.end18

_ZNK17arith_recognizers7is_realEPK4sort.exit:     ; preds = %_ZNK4decl13get_family_idEv.exit.thread.i.i.i
  %m_kind.i.i.i.i.i = getelementptr inbounds i8, ptr %4, i64 4
  %6 = load i32, ptr %m_kind.i.i.i.i.i, align 4
  %cmp3.i.i.i = icmp eq i32 %6, 0
  br i1 %cmp3.i.i.i, label %land.lhs.true15, label %if.end18

land.lhs.true15:                                  ; preds = %_ZNK17arith_recognizers7is_realEPK4sort.exit
  %m_info.i.i.i.i14 = getelementptr inbounds i8, ptr %3, i64 24
  %7 = load ptr, ptr %m_info.i.i.i.i14, align 8
  %cmp.i.i.i.i15 = icmp eq ptr %7, null
  br i1 %cmp.i.i.i.i15, label %if.end18, label %_ZNK4decl13get_family_idEv.exit.thread.i.i.i16

_ZNK4decl13get_family_idEv.exit.thread.i.i.i16:   ; preds = %land.lhs.true15
  %8 = load i32, ptr %7, align 8
  %cmp6.i.i.i17 = icmp eq i32 %8, 5
  br i1 %cmp6.i.i.i17, label %_ZNK17arith_recognizers6is_intEPK4sort.exit, label %if.end18

_ZNK17arith_recognizers6is_intEPK4sort.exit:      ; preds = %_ZNK4decl13get_family_idEv.exit.thread.i.i.i16
  %m_kind.i.i.i.i.i19 = getelementptr inbounds i8, ptr %7, i64 4
  %9 = load i32, ptr %m_kind.i.i.i.i.i19, align 4
  %cmp3.i.i.i20 = icmp eq i32 %9, 1
  br i1 %cmp3.i.i.i20, label %for.inc, label %if.end18

if.end18:                                         ; preds = %land.lhs.true15, %_ZNK4decl13get_family_idEv.exit.thread.i.i.i16, %if.end13, %_ZNK4decl13get_family_idEv.exit.thread.i.i.i, %_ZNK17arith_recognizers6is_intEPK4sort.exit, %_ZNK17arith_recognizers7is_realEPK4sort.exit
  %m_info.i.i.i.i21 = getelementptr inbounds i8, ptr %3, i64 24
  %10 = load ptr, ptr %m_info.i.i.i.i21, align 8
  %cmp.i.i.i.i22 = icmp eq ptr %10, null
  br i1 %cmp.i.i.i.i22, label %return, label %_ZNK4decl13get_family_idEv.exit.thread.i.i.i23

_ZNK4decl13get_family_idEv.exit.thread.i.i.i23:   ; preds = %if.end18
  %11 = load i32, ptr %10, align 8
  %cmp6.i.i.i24 = icmp eq i32 %11, 5
  br i1 %cmp6.i.i.i24, label %_ZNK17arith_recognizers7is_realEPK4sort.exit28, label %return

_ZNK17arith_recognizers7is_realEPK4sort.exit28:   ; preds = %_ZNK4decl13get_family_idEv.exit.thread.i.i.i23
  %m_kind.i.i.i.i.i26 = getelementptr inbounds i8, ptr %10, i64 4
  %12 = load i32, ptr %m_kind.i.i.i.i.i26, align 4
  %cmp3.i.i.i27 = icmp ne i32 %12, 0
  %brmerge = or i1 %cmp.i.i.i.i, %cmp3.i.i.i27
  br i1 %brmerge, label %return, label %_ZNK4decl13get_family_idEv.exit.thread.i.i.i31

_ZNK4decl13get_family_idEv.exit.thread.i.i.i31:   ; preds = %_ZNK17arith_recognizers7is_realEPK4sort.exit28
  %13 = load i32, ptr %4, align 8
  %cmp6.i.i.i32 = icmp eq i32 %13, 5
  br i1 %cmp6.i.i.i32, label %_ZNK17arith_recognizers6is_intEPK4sort.exit36, label %return

_ZNK17arith_recognizers6is_intEPK4sort.exit36:    ; preds = %_ZNK4decl13get_family_idEv.exit.thread.i.i.i31
  %m_kind.i.i.i.i.i34 = getelementptr inbounds i8, ptr %4, i64 4
  %14 = load i32, ptr %m_kind.i.i.i.i.i34, align 4
  %cmp3.i.i.i35 = icmp eq i32 %14, 1
  br i1 %cmp3.i.i.i35, label %for.inc, label %return

for.inc:                                          ; preds = %_ZNK17arith_recognizers6is_intEPK4sort.exit36, %_ZNK17arith_recognizers6is_intEPK4sort.exit, %for.body
  %indvars.iv.next = add nuw nsw i64 %indvars.iv, 1
  %exitcond.not = icmp eq i64 %indvars.iv.next, %wide.trip.count
  br i1 %exitcond.not, label %return, label %for.body, !llvm.loop !10

return:                                           ; preds = %_ZNK17arith_recognizers6is_intEPK4sort.exit36, %for.inc, %_ZNK4decl13get_family_idEv.exit.thread.i.i.i23, %if.end18, %_ZNK4decl13get_family_idEv.exit.thread.i.i.i31, %_ZNK17arith_recognizers7is_realEPK4sort.exit28, %if.end8, %if.end6, %if.end, %land.lhs.true
  %retval.0 = phi i1 [ false, %land.lhs.true ], [ false, %if.end ], [ true, %if.end6 ], [ true, %if.end8 ], [ false, %_ZNK17arith_recognizers6is_intEPK4sort.exit36 ], [ true, %for.inc ], [ false, %_ZNK4decl13get_family_idEv.exit.thread.i.i.i23 ], [ false, %if.end18 ], [ false, %_ZNK4decl13get_family_idEv.exit.thread.i.i.i31 ], [ false, %_ZNK17arith_recognizers7is_realEPK4sort.exit28 ]
  ret i1 %retval.0
}